target datalayout = "e-m:e-p270:32:32-p271:32:32-p272:64:64-i64:64-i128:128-f80:128-n8:16:32:64-S128"
target triple = "x86_64-pc-linux-gnu"

%struct.FormData_pg_class = type { i32, %struct.nameData, i32, i32, i32, i32, i32, i32, i32, i32, float, i32, i32, i8, i8, i8, i8, i16, i16, i8, i8, i8, i8, i8, i8, i8, i8, i32, i32, i32 }
%struct.nameData = type { [64 x i8] }
%struct.HeapTupleData = type { i32, %struct.ItemPointerData, i32, ptr }
%struct.ItemPointerData = type { %struct.BlockIdData, i16 }
%struct.BlockIdData = type { i16, i16 }
%struct.HeapTupleHeaderData = type { %union.anon, %struct.ItemPointerData, i16, i16, i8, [0 x i8] }
%union.anon = type { %struct.HeapTupleFields }
%struct.HeapTupleFields = type { i32, i32, %union.anon.0 }
%union.anon.0 = type { i32 }

@.str.1 = private unnamed_addr constant [16 x i8] c"objectaddress.c\00", align 1
@.str.232 = private unnamed_addr constant [36 x i8] c"cache lookup failed for relation %u\00", align 1
@__func__.getRelationDescription = private unnamed_addr constant [23 x i8] c"getRelationDescription\00", align 1
@.str.233 = private unnamed_addr constant [9 x i8] c"table %s\00", align 1
@.str.234 = private unnamed_addr constant [9 x i8] c"index %s\00", align 1
@.str.235 = private unnamed_addr constant [12 x i8] c"sequence %s\00", align 1
@.str.236 = private unnamed_addr constant [15 x i8] c"toast table %s\00", align 1
@.str.237 = private unnamed_addr constant [8 x i8] c"view %s\00", align 1
@.str.238 = private unnamed_addr constant [21 x i8] c"materialized view %s\00", align 1
@.str.239 = private unnamed_addr constant [18 x i8] c"composite type %s\00", align 1
@.str.240 = private unnamed_addr constant [17 x i8] c"foreign table %s\00", align 1
@.str.241 = private unnamed_addr constant [12 x i8] c"relation %s\00", align 1

; Function Attrs: inlinehint nounwind uwtable
define internal ptr @GETSTRUCT(ptr noundef %0) #4 {
  %2 = alloca ptr, align 8
  store ptr %0, ptr %2, align 8
  %3 = load ptr, ptr %2, align 8
  %4 = getelementptr inbounds nuw %struct.HeapTupleData, ptr %3, i32 0, i32 3
  %5 = load ptr, ptr %4, align 8
  %6 = load ptr, ptr %2, align 8
  %7 = getelementptr inbounds nuw %struct.HeapTupleData, ptr %6, i32 0, i32 3
  %8 = load ptr, ptr %7, align 8
  %9 = getelementptr inbounds nuw %struct.HeapTupleHeaderData, ptr %8, i32 0, i32 4
  %10 = load i8, ptr %9, align 2
  %11 = zext i8 %10 to i32
  %12 = sext i32 %11 to i64
  %13 = getelementptr inbounds i8, ptr %5, i64 %12
  ret ptr %13
}

; Function Attrs: inlinehint nounwind uwtable
define internal i64 @ObjectIdGetDatum(i32 noundef %0) #4 {
  %2 = alloca i32, align 4
  store i32 %0, ptr %2, align 4
  %3 = load i32, ptr %2, align 4
  %4 = zext i32 %3 to i64
  ret i64 %4
}

; Function Attrs: nounwind uwtable
define internal void @getRelationDescription(ptr noundef %0, i32 noundef %1, i1 noundef zeroext %2) #0 {
  %4 = alloca ptr, align 8
  %5 = alloca i32, align 4
  %6 = alloca i8, align 1
  %7 = alloca ptr, align 8
  %8 = alloca ptr, align 8
  %9 = alloca ptr, align 8
  %10 = alloca ptr, align 8
  %11 = alloca i32, align 4
  store ptr %0, ptr %4, align 8
  store i32 %1, ptr %5, align 4
  %12 = zext i1 %2 to i8
  store i8 %12, ptr %6, align 1
  call void @llvm.lifetime.start.p0(i64 8, ptr %7) #10
  call void @llvm.lifetime.start.p0(i64 8, ptr %8) #10
  call void @llvm.lifetime.start.p0(i64 8, ptr %9) #10
  call void @llvm.lifetime.start.p0(i64 8, ptr %10) #10
  %13 = load i32, ptr %5, align 4
  %14 = call i64 @ObjectIdGetDatum(i32 noundef %13)
  %15 = call ptr @SearchSysCache1(i32 noundef 57, i64 noundef %14)
  store ptr %15, ptr %7, align 8
  %16 = load ptr, ptr %7, align 8
  %17 = icmp ne ptr %16, null
  br i1 %17, label %34, label %18

18:                                               ; preds = %3
  %19 = load i8, ptr %6, align 1, !range !4, !noundef !5
  %20 = trunc i8 %19 to i1
  br i1 %20, label %33, label %21

21:                                               ; preds = %18
  br label %22

22:                                               ; preds = %21
  br i1 true, label %23, label %25

23:                                               ; preds = %22
  %24 = call zeroext i1 @errstart_cold(i32 noundef 21, ptr noundef null) #11
  br i1 %24, label %27, label %30

25:                                               ; preds = %22
  %26 = call zeroext i1 @errstart(i32 noundef 21, ptr noundef null)
  br i1 %26, label %27, label %30

27:                                               ; preds = %25, %23
  %28 = load i32, ptr %5, align 4
  %29 = call i32 (ptr, ...) @errmsg_internal(ptr noundef @.str.232, i32 noundef %28)
  call void @errfinish(ptr noundef @.str.1, i32 noundef 4105, ptr noundef @__func__.getRelationDescription)
  br label %30

30:                                               ; preds = %27, %25, %23
  unreachable

31:                                               ; No predecessors!
  br label %32

32:                                               ; preds = %31
  br label %33

33:                                               ; preds = %32, %18
  store i32 1, ptr %11, align 4
  br label %85

34:                                               ; preds = %3
  %35 = load ptr, ptr %7, align 8
  %36 = call ptr @GETSTRUCT(ptr noundef %35)
  store ptr %36, ptr %8, align 8
  %37 = load i32, ptr %5, align 4
  %38 = call zeroext i1 @RelationIsVisible(i32 noundef %37)
  br i1 %38, label %39, label %40

39:                                               ; preds = %34
  store ptr null, ptr %9, align 8
  br label %45

40:                                               ; preds = %34
  %41 = load ptr, ptr %8, align 8
  %42 = getelementptr inbounds nuw %struct.FormData_pg_class, ptr %41, i32 0, i32 2
  %43 = load i32, ptr %42, align 4
  %44 = call ptr @get_namespace_name(i32 noundef %43)
  store ptr %44, ptr %9, align 8
  br label %45

45:                                               ; preds = %40, %39
  %46 = load ptr, ptr %9, align 8
  %47 = load ptr, ptr %8, align 8
  %48 = getelementptr inbounds nuw %struct.FormData_pg_class, ptr %47, i32 0, i32 1
  %49 = getelementptr inbounds nuw %struct.nameData, ptr %48, i32 0, i32 0
  %50 = getelementptr inbounds [64 x i8], ptr %49, i64 0, i64 0
  %51 = call ptr @quote_qualified_identifier(ptr noundef %46, ptr noundef %50)
  store ptr %51, ptr %10, align 8
  %52 = load ptr, ptr %8, align 8
  %53 = getelementptr inbounds nuw %struct.FormData_pg_class, ptr %52, i32 0, i32 16
  %54 = load i8, ptr %53, align 1
  %55 = sext i8 %54 to i32
  switch i32 %55, label %80 [
    i32 114, label %56
    i32 112, label %56
    i32 105, label %59
    i32 73, label %59
    i32 83, label %62
    i32 116, label %65
    i32 118, label %68
    i32 109, label %71
    i32 99, label %74
    i32 102, label %77
  ]

56:                                               ; preds = %45, %45
  %57 = load ptr, ptr %4, align 8
  %58 = load ptr, ptr %10, align 8
  call void (ptr, ptr, ...) @appendStringInfo(ptr noundef %57, ptr noundef @.str.233, ptr noundef %58)
  br label %83

59:                                               ; preds = %45, %45
  %60 = load ptr, ptr %4, align 8
  %61 = load ptr, ptr %10, align 8
  call void (ptr, ptr, ...) @appendStringInfo(ptr noundef %60, ptr noundef @.str.234, ptr noundef %61)
  br label %83

62:                                               ; preds = %45
  %63 = load ptr, ptr %4, align 8
  %64 = load ptr, ptr %10, align 8
  call void (ptr, ptr, ...) @appendStringInfo(ptr noundef %63, ptr noundef @.str.235, ptr noundef %64)
  br label %83

65:                                               ; preds = %45
  %66 = load ptr, ptr %4, align 8
  %67 = load ptr, ptr %10, align 8
  call void (ptr, ptr, ...) @appendStringInfo(ptr noundef %66, ptr noundef @.str.236, ptr noundef %67)
  br label %83

68:                                               ; preds = %45
  %69 = load ptr, ptr %4, align 8
  %70 = load ptr, ptr %10, align 8
  call void (ptr, ptr, ...) @appendStringInfo(ptr noundef %69, ptr noundef @.str.237, ptr noundef %70)
  br label %83

71:                                               ; preds = %45
  %72 = load ptr, ptr %4, align 8
  %73 = load ptr, ptr %10, align 8
  call void (ptr, ptr, ...) @appendStringInfo(ptr noundef %72, ptr noundef @.str.238, ptr noundef %73)
  br label %83

74:                                               ; preds = %45
  %75 = load ptr, ptr %4, align 8
  %76 = load ptr, ptr %10, align 8
  call void (ptr, ptr, ...) @appendStringInfo(ptr noundef %75, ptr noundef @.str.239, ptr noundef %76)
  br label %83

77:                                               ; preds = %45
  %78 = load ptr, ptr %4, align 8
  %79 = load ptr, ptr %10, align 8
  call void (ptr, ptr, ...) @appendStringInfo(ptr noundef %78, ptr noundef @.str.240, ptr noundef %79)
  br label %83

80:                                               ; preds = %45
  %81 = load ptr, ptr %4, align 8
  %82 = load ptr, ptr %10, align 8
  call void (ptr, ptr, ...) @appendStringInfo(ptr noundef %81, ptr noundef @.str.241, ptr noundef %82)
  br label %83

83:                                               ; preds = %80, %77, %74, %71, %68, %65, %62, %59, %56
  %84 = load ptr, ptr %7, align 8
  call void @ReleaseSysCache(ptr noundef %84)
  store i32 0, ptr %11, align 4
  br label %85

85:                                               ; preds = %83, %33
  call void @llvm.lifetime.end.p0(i64 8, ptr %10) #10
  call void @llvm.lifetime.end.p0(i64 8, ptr %9) #10
  call void @llvm.lifetime.end.p0(i64 8, ptr %8) #10
  call void @llvm.lifetime.end.p0(i64 8, ptr %7) #10
  %86 = load i32, ptr %11, align 4
  switch i32 %86, label %88 [
    i32 0, label %87
    i32 1, label %87
  ]

87:                                               ; preds = %85, %85
  ret void

88:                                               ; preds = %85
  unreachable
}