; Function Attrs: nounwind uwtable
define internal fastcc void @getRelationDescription(ptr noundef nonnull %0, i32 noundef %1, i1 noundef zeroext %2) unnamed_addr #0 {
  %4 = zext i32 %1 to i64
  %5 = tail call ptr @SearchSysCache1(i32 noundef 57, i64 noundef %4) #11
  %.not = icmp eq ptr %5, null
  br i1 %.not, label %6, label %10

6:                                                ; preds = %3
  br i1 %2, label %35, label %7

7:                                                ; preds = %6
  %8 = tail call zeroext i1 @errstart_cold(i32 noundef 21, ptr noundef null) #12
  tail call void @llvm.assume(i1 %8)
  %9 = tail call i32 (ptr, ...) @errmsg_internal(ptr noundef nonnull @.str.232, i32 noundef %1) #11
  tail call void @errfinish(ptr noundef nonnull @.str.1, i32 noundef 4105, ptr noundef nonnull @__func__.getRelationDescription) #11
  unreachable

10:                                               ; preds = %3
  %11 = getelementptr i8, ptr %5, i64 16
  %.val = load ptr, ptr %11, align 8
  %12 = getelementptr inbounds nuw i8, ptr %.val, i64 22
  %13 = load i8, ptr %12, align 2
  %14 = zext i8 %13 to i64
  %15 = getelementptr inbounds nuw i8, ptr %.val, i64 %14
  %16 = tail call zeroext i1 @RelationIsVisible(i32 noundef %1) #11
  br i1 %16, label %21, label %17

17:                                               ; preds = %10
  %18 = getelementptr inbounds nuw i8, ptr %15, i64 68
  %19 = load i32, ptr %18, align 4
  %20 = tail call ptr @get_namespace_name(i32 noundef %19) #11
  br label %21

21:                                               ; preds = %10, %17
  %.0 = phi ptr [ %20, %17 ], [ null, %10 ]
  %22 = getelementptr inbounds nuw i8, ptr %15, i64 4
  %23 = tail call ptr @quote_qualified_identifier(ptr noundef %.0, ptr noundef nonnull %22) #11
  %24 = getelementptr inbounds nuw i8, ptr %15, i64 115
  %25 = load i8, ptr %24, align 1
  switch i8 %25, label %33 [
    i8 114, label %34
    i8 112, label %34
    i8 105, label %26
    i8 73, label %26
    i8 83, label %27
    i8 116, label %28
    i8 118, label %29
    i8 109, label %30
    i8 99, label %31
    i8 102, label %32
  ]

26:                                               ; preds = %21, %21
  br label %34

27:                                               ; preds = %21
  br label %34

28:                                               ; preds = %21
  br label %34

29:                                               ; preds = %21
  br label %34

30:                                               ; preds = %21
  br label %34

31:                                               ; preds = %21
  br label %34

32:                                               ; preds = %21
  br label %34

33:                                               ; preds = %21
  br label %34

34:                                               ; preds = %21, %21, %33, %32, %31, %30, %29, %28, %27, %26
  %.str.241.sink = phi ptr [ @.str.241, %33 ], [ @.str.240, %32 ], [ @.str.239, %31 ], [ @.str.238, %30 ], [ @.str.237, %29 ], [ @.str.236, %28 ], [ @.str.235, %27 ], [ @.str.234, %26 ], [ @.str.233, %21 ], [ @.str.233, %21 ]
  tail call void (ptr, ptr, ...) @appendStringInfo(ptr noundef nonnull %0, ptr noundef nonnull %.str.241.sink, ptr noundef %23) #11
  tail call void @ReleaseSysCache(ptr noundef nonnull %5) #11
  br label %35

35:                                               ; preds = %6, %34
  ret void
}